target datalayout = "e-m:e-p270:32:32-p271:32:32-p272:64:64-i64:64-i128:128-f80:128-n8:16:32:64-S128"
target triple = "x86_64-pc-linux-gnu"

%struct.pointf_s = type { double, double }
%struct.GVJ_s = type { ptr, ptr, ptr, ptr, ptr, ptr, i32, ptr, ptr, ptr, ptr, i64, i64, ptr, i32, %struct.gvplugin_active_render_s, %struct.gvplugin_active_device_s, %struct.gvplugin_active_loadimage_t, ptr, %struct.pointf_s, i8, ptr, i32, ptr, i8, ptr, i32, i32, i32, %struct.point, %struct.point, %struct.point, %struct.point, %struct.point, i32, %struct.boxf, %struct.pointf_s, %struct.boxf, %struct.boxf, %struct.pointf_s, %struct.pointf_s, double, i32, %struct.pointf_s, %struct.boxf, %struct.pointf_s, %struct.pointf_s, i32, i32, %struct.box, %struct.box, %struct.pointf_s, %struct.pointf_s, %struct.pointf_s, i8, i8, i8, i8, i8, i8, %struct.pointf_s, %struct.pointf_s, ptr, ptr, ptr, ptr, ptr, ptr, i64, ptr }
%struct.gvplugin_active_render_s = type { ptr, i32, ptr, ptr }
%struct.gvplugin_active_device_s = type { ptr, i32, ptr, ptr }
%struct.gvplugin_active_loadimage_t = type { ptr, i32, ptr }
%struct.point = type { i32, i32 }
%struct.boxf = type { %struct.pointf_s, %struct.pointf_s }
%struct.box = type { %struct.point, %struct.point }
%struct.obj_state_s = type { ptr, i32, %union.anon, i32, %struct.color_s, %struct.color_s, %struct.color_s, i32, double, i32, i32, double, ptr, double, double, double, ptr, ptr, ptr, ptr, ptr, ptr, ptr, ptr, ptr, ptr, ptr, ptr, ptr, ptr, ptr, ptr, ptr, i16, i32, i64, ptr, i64, ptr, ptr, i32, ptr, i32, ptr }
%union.anon = type { ptr }
%struct.color_s = type { %union.anon.0, i32 }
%union.anon.0 = type { [4 x double] }

@dashed = internal global [1 x double] [double 6.000000e+00], align 8
@dashed_len = internal global i32 1, align 4
@dotted = internal global [2 x double] [double 2.000000e+00, double 6.000000e+00], align 16
@dotted_len = internal global i32 2, align 4

; Function Attrs: nounwind uwtable
define internal void @cairogen_set_color(ptr noundef %0, ptr noundef %1) #0 {
  %3 = alloca ptr, align 8
  %4 = alloca ptr, align 8
  store ptr %0, ptr %3, align 8, !tbaa !34
  store ptr %1, ptr %4, align 8, !tbaa !89
  %5 = load ptr, ptr %3, align 8, !tbaa !34
  %6 = load ptr, ptr %4, align 8, !tbaa !89
  %7 = getelementptr inbounds nuw %struct.color_s, ptr %6, i32 0, i32 0
  %8 = getelementptr inbounds [4 x double], ptr %7, i64 0, i64 0
  %9 = load double, ptr %8, align 8, !tbaa !44
  %10 = load ptr, ptr %4, align 8, !tbaa !89
  %11 = getelementptr inbounds nuw %struct.color_s, ptr %10, i32 0, i32 0
  %12 = getelementptr inbounds [4 x double], ptr %11, i64 0, i64 1
  %13 = load double, ptr %12, align 8, !tbaa !44
  %14 = load ptr, ptr %4, align 8, !tbaa !89
  %15 = getelementptr inbounds nuw %struct.color_s, ptr %14, i32 0, i32 0
  %16 = getelementptr inbounds [4 x double], ptr %15, i64 0, i64 2
  %17 = load double, ptr %16, align 8, !tbaa !44
  %18 = load ptr, ptr %4, align 8, !tbaa !89
  %19 = getelementptr inbounds nuw %struct.color_s, ptr %18, i32 0, i32 0
  %20 = getelementptr inbounds [4 x double], ptr %19, i64 0, i64 3
  %21 = load double, ptr %20, align 8, !tbaa !44
  call void @cairo_set_source_rgba(ptr noundef %5, double noundef %9, double noundef %13, double noundef %17, double noundef %21)
  ret void
}

; Function Attrs: nounwind uwtable
define internal void @cairogen_set_penstyle(ptr noundef %0, ptr noundef %1) #0 {
  %3 = alloca ptr, align 8
  %4 = alloca ptr, align 8
  %5 = alloca ptr, align 8
  store ptr %0, ptr %3, align 8, !tbaa !3
  store ptr %1, ptr %4, align 8, !tbaa !34
  call void @llvm.lifetime.start.p0(i64 8, ptr %5) #14
  %6 = load ptr, ptr %3, align 8, !tbaa !3
  %7 = getelementptr inbounds nuw %struct.GVJ_s, ptr %6, i32 0, i32 4
  %8 = load ptr, ptr %7, align 8, !tbaa !64
  store ptr %8, ptr %5, align 8, !tbaa !65
  %9 = load ptr, ptr %5, align 8, !tbaa !65
  %10 = getelementptr inbounds nuw %struct.obj_state_s, ptr %9, i32 0, i32 9
  %11 = load i32, ptr %10, align 8, !tbaa !91
  %12 = icmp eq i32 %11, 1
  br i1 %12, label %13, label %16

13:                                               ; preds = %2
  %14 = load ptr, ptr %4, align 8, !tbaa !34
  %15 = load i32, ptr @dashed_len, align 4, !tbaa !42
  call void @cairo_set_dash(ptr noundef %14, ptr noundef @dashed, i32 noundef %15, double noundef 0.000000e+00)
  br label %27

16:                                               ; preds = %2
  %17 = load ptr, ptr %5, align 8, !tbaa !65
  %18 = getelementptr inbounds nuw %struct.obj_state_s, ptr %17, i32 0, i32 9
  %19 = load i32, ptr %18, align 8, !tbaa !91
  %20 = icmp eq i32 %19, 2
  br i1 %20, label %21, label %24

21:                                               ; preds = %16
  %22 = load ptr, ptr %4, align 8, !tbaa !34
  %23 = load i32, ptr @dotted_len, align 4, !tbaa !42
  call void @cairo_set_dash(ptr noundef %22, ptr noundef @dotted, i32 noundef %23, double noundef 0.000000e+00)
  br label %26

24:                                               ; preds = %16
  %25 = load ptr, ptr %4, align 8, !tbaa !34
  call void @cairo_set_dash(ptr noundef %25, ptr noundef @dashed, i32 noundef 0, double noundef 0.000000e+00)
  br label %26

26:                                               ; preds = %24, %21
  br label %27

27:                                               ; preds = %26, %13
  %28 = load ptr, ptr %4, align 8, !tbaa !34
  %29 = load ptr, ptr %5, align 8, !tbaa !65
  %30 = getelementptr inbounds nuw %struct.obj_state_s, ptr %29, i32 0, i32 11
  %31 = load double, ptr %30, align 8, !tbaa !92
  call void @cairo_set_line_width(ptr noundef %28, double noundef %31)
  call void @llvm.lifetime.end.p0(i64 8, ptr %5) #14
  ret void
}

; Function Attrs: nounwind uwtable
define internal void @cairogen_polygon(ptr noundef %0, ptr noundef %1, i64 noundef %2, i32 noundef %3) #0 {
  %5 = alloca ptr, align 8
  %6 = alloca ptr, align 8
  %7 = alloca i64, align 8
  %8 = alloca i32, align 4
  %9 = alloca ptr, align 8
  %10 = alloca ptr, align 8
  %11 = alloca i64, align 8
  store ptr %0, ptr %5, align 8, !tbaa !3
  store ptr %1, ptr %6, align 8, !tbaa !81
  store i64 %2, ptr %7, align 8, !tbaa !43
  store i32 %3, ptr %8, align 4, !tbaa !42
  call void @llvm.lifetime.start.p0(i64 8, ptr %9) #14
  %12 = load ptr, ptr %5, align 8, !tbaa !3
  %13 = getelementptr inbounds nuw %struct.GVJ_s, ptr %12, i32 0, i32 4
  %14 = load ptr, ptr %13, align 8, !tbaa !64
  store ptr %14, ptr %9, align 8, !tbaa !65
  call void @llvm.lifetime.start.p0(i64 8, ptr %10) #14
  %15 = load ptr, ptr %5, align 8, !tbaa !3
  %16 = getelementptr inbounds nuw %struct.GVJ_s, ptr %15, i32 0, i32 23
  %17 = load ptr, ptr %16, align 8, !tbaa !33
  store ptr %17, ptr %10, align 8, !tbaa !34
  %18 = load ptr, ptr %5, align 8, !tbaa !3
  %19 = load ptr, ptr %10, align 8, !tbaa !34
  call void @cairogen_set_penstyle(ptr noundef %18, ptr noundef %19)
  %20 = load ptr, ptr %10, align 8, !tbaa !34
  %21 = load ptr, ptr %6, align 8, !tbaa !81
  %22 = getelementptr inbounds %struct.pointf_s, ptr %21, i64 0
  %23 = getelementptr inbounds nuw %struct.pointf_s, ptr %22, i32 0, i32 0
  %24 = load double, ptr %23, align 8, !tbaa !71
  %25 = load ptr, ptr %6, align 8, !tbaa !81
  %26 = getelementptr inbounds %struct.pointf_s, ptr %25, i64 0
  %27 = getelementptr inbounds nuw %struct.pointf_s, ptr %26, i32 0, i32 1
  %28 = load double, ptr %27, align 8, !tbaa !72
  %29 = fneg double %28
  call void @cairo_move_to(ptr noundef %20, double noundef %24, double noundef %29)
  call void @llvm.lifetime.start.p0(i64 8, ptr %11) #14
  store i64 1, ptr %11, align 8, !tbaa !43
  br label %30

30:                                               ; preds = %48, %4
  %31 = load i64, ptr %11, align 8, !tbaa !43
  %32 = load i64, ptr %7, align 8, !tbaa !43
  %33 = icmp ult i64 %31, %32
  br i1 %33, label %35, label %34

34:                                               ; preds = %30
  call void @llvm.lifetime.end.p0(i64 8, ptr %11) #14
  br label %51

35:                                               ; preds = %30
  %36 = load ptr, ptr %10, align 8, !tbaa !34
  %37 = load ptr, ptr %6, align 8, !tbaa !81
  %38 = load i64, ptr %11, align 8, !tbaa !43
  %39 = getelementptr inbounds nuw %struct.pointf_s, ptr %37, i64 %38
  %40 = getelementptr inbounds nuw %struct.pointf_s, ptr %39, i32 0, i32 0
  %41 = load double, ptr %40, align 8, !tbaa !71
  %42 = load ptr, ptr %6, align 8, !tbaa !81
  %43 = load i64, ptr %11, align 8, !tbaa !43
  %44 = getelementptr inbounds nuw %struct.pointf_s, ptr %42, i64 %43
  %45 = getelementptr inbounds nuw %struct.pointf_s, ptr %44, i32 0, i32 1
  %46 = load double, ptr %45, align 8, !tbaa !72
  %47 = fneg double %46
  call void @cairo_line_to(ptr noundef %36, double noundef %41, double noundef %47)
  br label %48

48:                                               ; preds = %35
  %49 = load i64, ptr %11, align 8, !tbaa !43
  %50 = add i64 %49, 1
  store i64 %50, ptr %11, align 8, !tbaa !43
  br label %30, !llvm.loop !82

51:                                               ; preds = %34
  %52 = load ptr, ptr %10, align 8, !tbaa !34
  call void @cairo_close_path(ptr noundef %52)
  %53 = load i32, ptr %8, align 4, !tbaa !42
  %54 = icmp eq i32 %53, 2
  br i1 %54, label %58, label %55

55:                                               ; preds = %51
  %56 = load i32, ptr %8, align 4, !tbaa !42
  %57 = icmp eq i32 %56, 3
  br i1 %57, label %58, label %64

58:                                               ; preds = %55, %51
  %59 = load ptr, ptr %10, align 8, !tbaa !34
  %60 = load ptr, ptr %9, align 8, !tbaa !65
  %61 = load i32, ptr %8, align 4, !tbaa !42
  %62 = load ptr, ptr %6, align 8, !tbaa !81
  %63 = load i64, ptr %7, align 8, !tbaa !43
  call void @cairo_gradient_fill(ptr noundef %59, ptr noundef %60, i32 noundef %61, ptr noundef %62, i64 noundef %63)
  br label %73

64:                                               ; preds = %55
  %65 = load i32, ptr %8, align 4, !tbaa !42
  %66 = icmp ne i32 %65, 0
  br i1 %66, label %67, label %72

67:                                               ; preds = %64
  %68 = load ptr, ptr %10, align 8, !tbaa !34
  %69 = load ptr, ptr %9, align 8, !tbaa !65
  %70 = getelementptr inbounds nuw %struct.obj_state_s, ptr %69, i32 0, i32 5
  call void @cairogen_set_color(ptr noundef %68, ptr noundef %70)
  %71 = load ptr, ptr %10, align 8, !tbaa !34
  call void @cairo_fill_preserve(ptr noundef %71)
  br label %72

72:                                               ; preds = %67, %64
  br label %73

73:                                               ; preds = %72, %58
  %74 = load ptr, ptr %10, align 8, !tbaa !34
  %75 = load ptr, ptr %9, align 8, !tbaa !65
  %76 = getelementptr inbounds nuw %struct.obj_state_s, ptr %75, i32 0, i32 4
  call void @cairogen_set_color(ptr noundef %74, ptr noundef %76)
  %77 = load ptr, ptr %10, align 8, !tbaa !34
  call void @cairo_stroke(ptr noundef %77)
  call void @llvm.lifetime.end.p0(i64 8, ptr %10) #14
  call void @llvm.lifetime.end.p0(i64 8, ptr %9) #14
  ret void
}