; Function Attrs: nounwind uwtable
define internal void @cairogen_polygon(ptr noundef readonly captures(none) %0, ptr noundef %1, i64 noundef %2, i32 noundef %3) #0 {
  %5 = getelementptr inbounds nuw i8, ptr %0, i64 32
  %6 = load ptr, ptr %5, align 8, !tbaa !56
  %7 = getelementptr inbounds nuw i8, ptr %0, i64 256
  %8 = load ptr, ptr %7, align 8, !tbaa !32
  %9 = getelementptr inbounds nuw i8, ptr %6, i64 168
  %10 = load i32, ptr %9, align 8, !tbaa !72
  switch i32 %10, label %13 [
    i32 1, label %11
    i32 2, label %12
  ]

11:                                               ; preds = %4
  tail call void @cairo_set_dash(ptr noundef %8, ptr noundef nonnull @dashed, i32 noundef 1, double noundef 0.000000e+00) #20
  br label %cairogen_set_penstyle.exit

12:                                               ; preds = %4
  tail call void @cairo_set_dash(ptr noundef %8, ptr noundef nonnull @dotted, i32 noundef 2, double noundef 0.000000e+00) #20
  br label %cairogen_set_penstyle.exit

13:                                               ; preds = %4
  tail call void @cairo_set_dash(ptr noundef %8, ptr noundef nonnull @dashed, i32 noundef 0, double noundef 0.000000e+00) #20
  br label %cairogen_set_penstyle.exit

cairogen_set_penstyle.exit:                       ; preds = %11, %12, %13
  %14 = getelementptr inbounds nuw i8, ptr %6, i64 176
  %15 = load double, ptr %14, align 8, !tbaa !73
  tail call void @cairo_set_line_width(ptr noundef %8, double noundef %15) #20
  %16 = load double, ptr %1, align 8, !tbaa !62
  %17 = getelementptr inbounds nuw i8, ptr %1, i64 8
  %18 = load double, ptr %17, align 8, !tbaa !64
  %19 = fneg double %18
  tail call void @cairo_move_to(ptr noundef %8, double noundef %16, double noundef %19) #20
  %20 = icmp ugt i64 %2, 1
  br i1 %20, label %.lr.ph, label %._crit_edge

._crit_edge:                                      ; preds = %.lr.ph, %cairogen_set_penstyle.exit
  tail call void @cairo_close_path(ptr noundef %8) #20
  %21 = and i32 %3, -2
  %or.cond = icmp eq i32 %21, 2
  br i1 %or.cond, label %28, label %29

.lr.ph:                                           ; preds = %cairogen_set_penstyle.exit, %.lr.ph
  %.032 = phi i64 [ %27, %.lr.ph ], [ 1, %cairogen_set_penstyle.exit ]
  %22 = getelementptr inbounds nuw %struct.pointf_s, ptr %1, i64 %.032
  %23 = load double, ptr %22, align 8, !tbaa !62
  %24 = getelementptr inbounds nuw i8, ptr %22, i64 8
  %25 = load double, ptr %24, align 8, !tbaa !64
  %26 = fneg double %25
  tail call void @cairo_line_to(ptr noundef %8, double noundef %23, double noundef %26) #20
  %27 = add nuw i64 %.032, 1
  %exitcond.not = icmp eq i64 %27, %2
  br i1 %exitcond.not, label %._crit_edge, label %.lr.ph, !llvm.loop !74

28:                                               ; preds = %._crit_edge
  tail call fastcc void @cairo_gradient_fill(ptr noundef %8, ptr noundef %6, i32 noundef %3, ptr noundef nonnull %1, i64 noundef %2)
  br label %39

29:                                               ; preds = %._crit_edge
  %.not = icmp eq i32 %3, 0
  br i1 %.not, label %39, label %30

30:                                               ; preds = %29
  %31 = getelementptr inbounds nuw i8, ptr %6, i64 72
  %32 = load double, ptr %31, align 8, !tbaa !38
  %33 = getelementptr inbounds nuw i8, ptr %6, i64 80
  %34 = load double, ptr %33, align 8, !tbaa !38
  %35 = getelementptr inbounds nuw i8, ptr %6, i64 88
  %36 = load double, ptr %35, align 8, !tbaa !38
  %37 = getelementptr inbounds nuw i8, ptr %6, i64 96
  %38 = load double, ptr %37, align 8, !tbaa !38
  tail call void @cairo_set_source_rgba(ptr noundef %8, double noundef %32, double noundef %34, double noundef %36, double noundef %38) #20
  tail call void @cairo_fill_preserve(ptr noundef %8) #20
  br label %39

39:                                               ; preds = %29, %30, %28
  %40 = getelementptr inbounds nuw i8, ptr %6, i64 32
  %41 = load double, ptr %40, align 8, !tbaa !38
  %42 = getelementptr inbounds nuw i8, ptr %6, i64 40
  %43 = load double, ptr %42, align 8, !tbaa !38
  %44 = getelementptr inbounds nuw i8, ptr %6, i64 48
  %45 = load double, ptr %44, align 8, !tbaa !38
  %46 = getelementptr inbounds nuw i8, ptr %6, i64 56
  %47 = load double, ptr %46, align 8, !tbaa !38
  tail call void @cairo_set_source_rgba(ptr noundef %8, double noundef %41, double noundef %43, double noundef %45, double noundef %47) #20
  tail call void @cairo_stroke(ptr noundef %8) #20
  ret void
}